Certificate:
    Data:
        Version: 3 (0x2)
        Serial Number: 7977950955898398140 (0x6eb7602019cfe5bc)
    Signature Algorithm: ecdsa-with-SHA512
        Issuer: C=US, ST=North Carolina, L=RTP, O=Hyperledger, OU=fabric-ca, CN=FabricTlsRootCa
        Validity
            Not Before: Sep 20 20:07:39 2017 GMT
            Not After : Jan  1 01:01:01 2037 GMT
        Subject: C=US, ST=North Carolina, L=RTP, O=Hyperledger, OU=fabric-ca, CN=noCaCert
        Subject Public Key Info:
            Public Key Algorithm: id-ecPublicKey
                Public-Key: (256 bit)
                pub: 
                    04:72:7e:88:17:d7:8b:96:12:a3:6a:82:da:ba:6a:
                    e9:2d:b5:46:64:f2:6c:43:a9:05:86:0e:64:68:73:
                    79:7c:bc:25:dd:67:9c:4d:a7:96:b0:35:1f:25:f9:
                    47:d3:b8:77:4a:98:d1:89:fe:f0:f5:99:3f:3e:62:
                    73:ee:0a:d5:e2
                ASN1 OID: prime256v1
                NIST CURVE: P-256
        X509v3 extensions:
            X509v3 CRL Distribution Points: 

                Full Name:
                  URI:http://localhost:3755/ROOTCA/crl/crl.der

            X509v3 Basic Constraints: 
                CA:FALSE
            Netscape Comment: 
                OpenSSL Generated Certificate
            X509v3 Subject Key Identifier: 
                2A:74:AB:02:F8:F5:1C:E2:86:1D:64:5F:87:30:E0:A7:52:78:5E:75
            X509v3 Authority Key Identifier: 
                keyid:5C:20:9B:87:B9:FD:41:4F:19:80:D4:7F:68:BD:E9:9A:6F:67:14:6D

            X509v3 Key Usage: 
                Digital Signature, Certificate Sign, CRL Sign
            X509v3 Subject Alternative Name: 
                IP Address:127.0.0.1, IP Address:0:0:0:0:0:0:0:1, DNS:localhost, email:admin@localhost
    Signature Algorithm: ecdsa-with-SHA512
         30:46:02:21:00:96:ba:21:cb:f3:4b:2c:1b:5c:61:75:ec:4a:
         1a:e7:7b:5b:ca:28:b5:68:63:e3:69:c1:17:36:aa:ce:5c:a1:
         07:02:21:00:e3:45:f6:49:62:d2:b3:6e:d2:cd:da:82:75:4f:
         24:42:ea:c9:55:e9:76:ba:05:b2:c7:97:38:5a:15:65:74:0a
-----BEGIN CERTIFICATE-----
MIIC6DCCAo2gAwIBAgIIbrdgIBnP5bwwCgYIKoZIzj0EAwQweDELMAkGA1UEBhMC
VVMxFzAVBgNVBAgMDk5vcnRoIENhcm9saW5hMQwwCgYDVQQHDANSVFAxFDASBgNV
BAoMC0h5cGVybGVkZ2VyMRIwEAYDVQQLDAlmYWJyaWMtY2ExGDAWBgNVBAMMD0Zh
YnJpY1Rsc1Jvb3RDYTAgFw0xNzA5MjAyMDA3MzlaGA8yMDM3MDEwMTAxMDEwMVow
cTELMAkGA1UEBhMCVVMxFzAVBgNVBAgTDk5vcnRoIENhcm9saW5hMQwwCgYDVQQH
EwNSVFAxFDASBgNVBAoTC0h5cGVybGVkZ2VyMRIwEAYDVQQLEwlmYWJyaWMtY2Ex
ETAPBgNVBAMTCG5vQ2FDZXJ0MFkwEwYHKoZIzj0CAQYIKoZIzj0DAQcDQgAEcn6I
F9eLlhKjaoLaumrpLbVGZPJsQ6kFhg5kaHN5fLwl3WecTaeWsDUfJflH07h3SpjR
if7w9Zk/PmJz7grV4qOCAQQwggEAMDkGA1UdHwQyMDAwLqAsoCqGKGh0dHA6Ly9s
b2NhbGhvc3Q6Mzc1NS9ST09UQ0EvY3JsL2NybC5kZXIwCQYDVR0TBAIwADAsBglg
hkgBhvhCAQ0EHxYdT3BlblNTTCBHZW5lcmF0ZWQgQ2VydGlmaWNhdGUwHQYDVR0O
BBYEFCp0qwL49Rzihh1kX4cw4KdSeF51MB8GA1UdIwQYMBaAFFwgm4e5/UFPGYDU
f2i96ZpvZxRtMAsGA1UdDwQEAwIBhjA9BgNVHREENjA0hwR/AAABhxAAAAAAAAAA
AAAAAAAAAAABgglsb2NhbGhvc3SBD2FkbWluQGxvY2FsaG9zdDAKBggqhkjOPQQD
BANJADBGAiEAlrohy/NLLBtcYXXsShrne1vKKLVoY+NpwRc2qs5coQcCIQDjRfZJ
YtKzbtLN2oJ1TyRC6slV6Xa6BbLHlzhaFWV0Cg==
-----END CERTIFICATE-----
