Certificate:
    Data:
        Version: 3 (0x2)
        Serial Number: 3800244251895859584 (0x34bd2e0335f90980)
    Signature Algorithm: dsa_with_SHA256
        Issuer: C=US, ST=North Carolina, L=RTP, O=Hyperledger, OU=fabric-ca, CN=dsaKey
        Validity
            Not Before: Sep 20 20:29:01 2017 GMT
            Not After : Sep 20 20:25:53 2027 GMT
        Subject: C=US, ST=North Carolina, L=RTP, O=Hyperledger, OU=fabric-ca, CN=dsaKey
        Subject Public Key Info:
            Public Key Algorithm: dsaEncryption
                pub: 
                    44:29:dd:df:bc:10:35:47:a6:cf:d9:0d:ef:ec:c4:
                    cc:a5:ff:91:ca:3d:30:a1:bd:4a:95:6b:86:5d:e5:
                    0a:c2:f5:79:df:ad:95:e5:45:bd:6d:b2:2a:9c:f4:
                    6e:cc:35:63:0f:c9:fe:d9:86:ac:92:95:11:d7:ca:
                    f4:30:e0:8d:c4:b2:f4:ff:75:6e:c9:8e:16:d2:df:
                    3d:bb:db:af:d0:7a:f9:3f:10:79:bc:a8:7c:16:fc:
                    61:a5:c0:fa:51:a7:75:88:9c:a2:71:9d:1b:2c:79:
                    64:a5:ca:c7:2d:c8:ce:94:28:29:13:31:77:3c:5c:
                    24:ce:7d:f6:35:a9:19:af
                P:   
                    00:df:06:ba:5f:d9:be:7f:1f:2b:4e:a8:4d:14:21:
                    06:b1:df:bb:04:e5:1a:45:71:a7:32:90:ee:b6:46:
                    0e:4a:9d:e9:40:fd:c0:57:22:f1:8d:21:ab:42:7c:
                    fc:95:90:0f:93:ab:7d:e3:ab:ea:1b:0d:0b:a6:af:
                    7a:cc:ad:f0:68:d9:c9:45:84:e5:10:64:cd:8f:81:
                    0e:a5:62:46:3c:2e:bc:76:c1:56:85:c4:36:70:f6:
                    90:9a:de:72:c2:11:cc:b9:26:33:72:ea:ed:7b:93:
                    f7:78:b2:68:e2:b9:d5:cd:5c:01:5f:fc:1d:45:52:
                    83:04:26:48:c2:dc:f2:65:ff
                Q:   
                    00:dd:73:bd:cc:be:0c:a3:8a:c1:fb:b5:98:da:17:
                    c8:cd:8c:e9:2c:9d
                G:   
                    00:c9:ae:62:ec:b9:c4:ee:67:90:da:a8:ab:04:ff:
                    7f:99:13:92:72:64:2c:b5:3d:9b:40:e7:38:a0:9a:
                    94:dc:a1:20:de:0f:73:3b:b2:1e:80:d9:cb:25:2b:
                    b0:cc:3d:60:80:66:1f:57:16:6a:37:7e:4d:3c:04:
                    c1:41:46:7a:23:63:ad:12:65:b5:ea:3b:8d:59:6e:
                    6b:e7:df:f0:a9:22:b1:37:03:3f:f3:69:e2:13:70:
                    3a:6e:1e:04:1d:0c:46:16:0e:e6:59:dd:52:c1:ad:
                    96:db:44:0d:62:4a:fa:75:c1:00:0c:07:de:6b:00:
                    c4:1d:db:1e:45:4c:26:21:44
        X509v3 extensions:
            X509v3 CRL Distribution Points: 

                Full Name:
                  URI:http://localhost:3755/dsa/crl/crl.der

            X509v3 Subject Key Identifier: 
                66:E4:94:0A:A9:48:6B:31:65:F9:72:EC:5C:7C:89:B9:6D:7E:42:2B
            X509v3 Authority Key Identifier: 
                keyid:66:E4:94:0A:A9:48:6B:31:65:F9:72:EC:5C:7C:89:B9:6D:7E:42:2B
                DirName:/C=US/ST=North Carolina/L=RTP/O=Hyperledger/OU=fabric-ca/CN=dsaKey
                serial:34:BD:2E:03:35:F9:09:80

            X509v3 Basic Constraints: critical
                CA:TRUE
            X509v3 Key Usage: 
                Certificate Sign, CRL Sign
            X509v3 Certificate Policies: 
                Policy: X509v3 Any Policy

            X509v3 Subject Alternative Name: 
                IP Address:0:0:0:0:0:0:0:1, DNS:localhost, email:user@localhost
    Signature Algorithm: dsa_with_SHA256
         r:   
             03:91:b2:86:37:56:d6:66:c8:56:da:38:62:3c:14:
             3f:c3:56:68:55
         s:   
             00:bc:5f:fb:7d:fb:f1:1a:f2:44:9a:f4:3d:8d:fd:
             b7:6d:d0:1d:19:89
-----BEGIN CERTIFICATE-----
MIIEhzCCBESgAwIBAgIINL0uAzX5CYAwCwYJYIZIAWUDBAMCMG8xCzAJBgNVBAYT
AlVTMRcwFQYDVQQIDA5Ob3J0aCBDYXJvbGluYTEMMAoGA1UEBwwDUlRQMRQwEgYD
VQQKDAtIeXBlcmxlZGdlcjESMBAGA1UECwwJZmFicmljLWNhMQ8wDQYDVQQDDAZk
c2FLZXkwHhcNMTcwOTIwMjAyOTAxWhcNMjcwOTIwMjAyNTUzWjBvMQswCQYDVQQG
EwJVUzEXMBUGA1UECAwOTm9ydGggQ2Fyb2xpbmExDDAKBgNVBAcMA1JUUDEUMBIG
A1UECgwLSHlwZXJsZWRnZXIxEjAQBgNVBAsMCWZhYnJpYy1jYTEPMA0GA1UEAwwG
ZHNhS2V5MIIBtzCCASwGByqGSM44BAEwggEfAoGBAN8Gul/Zvn8fK06oTRQhBrHf
uwTlGkVxpzKQ7rZGDkqd6UD9wFci8Y0hq0J8/JWQD5OrfeOr6hsNC6avesyt8GjZ
yUWE5RBkzY+BDqViRjwuvHbBVoXENnD2kJrecsIRzLkmM3Lq7XuT93iyaOK51c1c
AV/8HUVSgwQmSMLc8mX/AhUA3XO9zL4Mo4rB+7WY2hfIzYzpLJ0CgYEAya5i7LnE
7meQ2qirBP9/mROScmQstT2bQOc4oJqU3KEg3g9zO7IegNnLJSuwzD1ggGYfVxZq
N35NPATBQUZ6I2OtEmW16juNWW5r59/wqSKxNwM/82niE3A6bh4EHQxGFg7mWd1S
wa2W20QNYkr6dcEADAfeawDEHdseRUwmIUQDgYQAAoGARCnd37wQNUemz9kN7+zE
zKX/kco9MKG9SpVrhl3lCsL1ed+tleVFvW2yKpz0bsw1Yw/J/tmGrJKVEdfK9DDg
jcSy9P91bsmOFtLfPbvbr9B6+T8QebyofBb8YaXA+lGndYiconGdGyx5ZKXKxy3I
zpQoKRMxdzxcJM599jWpGa+jggFnMIIBYzA2BgNVHR8ELzAtMCugKaAnhiVodHRw
Oi8vbG9jYWxob3N0OjM3NTUvZHNhL2NybC9jcmwuZGVyMB0GA1UdDgQWBBRm5JQK
qUhrMWX5cuxcfIm5bX5CKzCBoAYDVR0jBIGYMIGVgBRm5JQKqUhrMWX5cuxcfIm5
bX5CK6FzpHEwbzELMAkGA1UEBhMCVVMxFzAVBgNVBAgMDk5vcnRoIENhcm9saW5h
MQwwCgYDVQQHDANSVFAxFDASBgNVBAoMC0h5cGVybGVkZ2VyMRIwEAYDVQQLDAlm
YWJyaWMtY2ExDzANBgNVBAMMBmRzYUtleYIINL0uAzX5CYAwDwYDVR0TAQH/BAUw
AwEB/zALBgNVHQ8EBAMCAQYwEQYDVR0gBAowCDAGBgRVHSAAMDYGA1UdEQQvMC2H
EAAAAAAAAAAAAAAAAAAAAAGCCWxvY2FsaG9zdIEOdXNlckBsb2NhbGhvc3QwCwYJ
YIZIAWUDBAMCAzAAMC0CFAORsoY3VtZmyFbaOGI8FD/DVmhVAhUAvF/7ffvxGvJE
mvQ9jf23bdAdGYk=
-----END CERTIFICATE-----
