Certificate:
    Data:
        Version: 3 (0x2)
        Serial Number: 5131467313006037593 (0x4736a2556040ca59)
    Signature Algorithm: dsa_with_SHA256
        Issuer: C=US, ST=NC, L=RTP, O=IBM, O=Hyperledger, OU=FVT, CN=dsaKey
        Validity
            Not Before: Jun  6 18:00:11 2017 GMT
            Not After : Jun  1 18:00:11 2037 GMT
        Subject: C=US, ST=NC, L=RTP, O=IBM, O=Hyperledger, OU=FVT, CN=dsaKey
        Subject Public Key Info:
            Public Key Algorithm: dsaEncryption
                pub: 
                    00:b7:7a:5a:1a:6c:92:03:66:54:32:01:f0:04:9f:
                    60:6c:37:c1:44:01:e7:fa:02:25:35:0b:e9:c7:f1:
                    19:a6:53:75:fa:aa:5d:2a:9e:3b:2b:3f:4b:3a:65:
                    c2:6c:28:6a:10:0a:fb:1b:f5:b0:6c:73:df:ee:5e:
                    f5:6e:64:51:46
                P:   
                    00:e0:4d:0e:76:3d:54:35:92:37:e8:1e:af:63:a0:
                    5c:b0:ea:93:69:ba:7b:4f:3e:fb:03:0a:96:53:d7:
                    8c:d7:a4:d6:26:49:35:dd:78:f4:d3:4c:98:ca:f7:
                    4a:3a:44:38:5a:10:d4:a3:77:dc:80:1a:0b:4d:25:
                    0f:5c:f6:fc:1b
                Q:   
                    00:a4:6d:b4:02:54:7a:f1:61:5d:df:2b:47:86:6b:
                    be:24:5a:d5:73:f9
                G:   
                    00:8f:72:4a:75:11:bb:6c:f6:89:a8:df:a6:40:73:
                    1f:49:0f:49:87:fb:87:45:fd:1b:cc:d2:70:09:17:
                    1c:1b:2f:3e:d9:67:0b:e0:a8:9b:83:f0:90:3b:3a:
                    a1:2e:a1:f4:73:b9:d7:d7:d9:e9:de:35:88:16:bc:
                    57:d8:50:aa:d7
        X509v3 extensions:
            X509v3 CRL Distribution Points: 

                Full Name:
                  URI:http://localhost:3755/dsaCa/crl/crl.der

            X509v3 Subject Key Identifier: 
                8D:38:58:64:5C:8E:91:16:95:61:7C:89:E8:18:B6:02:24:36:0F:7F
            X509v3 Authority Key Identifier: 
                keyid:8D:38:58:64:5C:8E:91:16:95:61:7C:89:E8:18:B6:02:24:36:0F:7F
                DirName:/C=US/ST=NC/L=RTP/O=IBM/O=Hyperledger/OU=FVT/CN=dsaKey
                serial:47:36:A2:55:60:40:CA:59

            X509v3 Basic Constraints: critical
                CA:TRUE
            X509v3 Key Usage: 
                Certificate Sign, CRL Sign
            X509v3 Certificate Policies: 
                Policy: X509v3 Any Policy

            X509v3 Subject Alternative Name: 
                IP Address:127.0.0.1
    Signature Algorithm: dsa_with_SHA256
         r:   
             6f:63:2b:4e:45:d8:cb:fe:46:a4:a7:66:3f:04:7f:
             36:db:c1:82:fd
         s:   
             78:1f:6f:66:6f:c9:a5:69:ef:e6:01:f1:fd:0d:1b:
             a8:73:cd:c6:53
-----BEGIN CERTIFICATE-----
MIIDjzCCA02gAwIBAgIIRzaiVWBAylkwCwYJYIZIAWUDBAMCMGsxCzAJBgNVBAYT
AlVTMQswCQYDVQQIEwJOQzEMMAoGA1UEBxMDUlRQMQwwCgYDVQQKEwNJQk0xFDAS
BgNVBAoTC0h5cGVybGVkZ2VyMQwwCgYDVQQLEwNGVlQxDzANBgNVBAMTBmRzYUtl
eTAeFw0xNzA2MDYxODAwMTFaFw0zNzA2MDExODAwMTFaMGsxCzAJBgNVBAYTAlVT
MQswCQYDVQQIEwJOQzEMMAoGA1UEBxMDUlRQMQwwCgYDVQQKEwNJQk0xFDASBgNV
BAoTC0h5cGVybGVkZ2VyMQwwCgYDVQQLEwNGVlQxDzANBgNVBAMTBmRzYUtleTCB
8jCBqQYHKoZIzjgEATCBnQJBAOBNDnY9VDWSN+ger2OgXLDqk2m6e08++wMKllPX
jNek1iZJNd149NNMmMr3SjpEOFoQ1KN33IAaC00lD1z2/BsCFQCkbbQCVHrxYV3f
K0eGa74kWtVz+QJBAI9ySnURu2z2iajfpkBzH0kPSYf7h0X9G8zScAkXHBsvPtln
C+Com4PwkDs6oS6h9HO519fZ6d41iBa8V9hQqtcDRAACQQC3eloabJIDZlQyAfAE
n2BsN8FEAef6AiU1C+nH8RmmU3X6ql0qnjsrP0s6ZcJsKGoQCvsb9bBsc9/uXvVu
ZFFGo4IBPjCCATowOAYDVR0fBDEwLzAtoCugKYYnaHR0cDovL2xvY2FsaG9zdDoz
NzU1L2RzYUNhL2NybC9jcmwuZGVyMB0GA1UdDgQWBBSNOFhkXI6RFpVhfInoGLYC
JDYPfzCBnAYDVR0jBIGUMIGRgBSNOFhkXI6RFpVhfInoGLYCJDYPf6FvpG0wazEL
MAkGA1UEBhMCVVMxCzAJBgNVBAgTAk5DMQwwCgYDVQQHEwNSVFAxDDAKBgNVBAoT
A0lCTTEUMBIGA1UEChMLSHlwZXJsZWRnZXIxDDAKBgNVBAsTA0ZWVDEPMA0GA1UE
AxMGZHNhS2V5gghHNqJVYEDKWTAPBgNVHRMBAf8EBTADAQH/MAsGA1UdDwQEAwIB
BjARBgNVHSAECjAIMAYGBFUdIAAwDwYDVR0RBAgwBocEfwAAATALBglghkgBZQME
AwIDLwAwLAIUb2MrTkXYy/5GpKdmPwR/NtvBgv0CFHgfb2ZvyaVp7+YB8f0NG6hz
zcZT
-----END CERTIFICATE-----
