Certificate:
    Data:
        Version: 3 (0x2)
        Serial Number: 18237722559857237334 (0xfd19680a646b1d56)
    Signature Algorithm: ecdsa-with-SHA256
        Issuer: C=US, ST=NC, L=RTP, O=IBM, O=Hyperledger, OU=FVT, CN=ec256Key
        Validity
            Not Before: Jun  6 18:20:37 2017 GMT
            Not After : Jun  1 18:20:37 2037 GMT
        Subject: C=US, ST=NC, L=RTP, O=IBM, O=Hyperledger, OU=FVT, CN=ec256Key
        Subject Public Key Info:
            Public Key Algorithm: id-ecPublicKey
                Public-Key: (256 bit)
                pub: 
                    04:40:c3:64:65:4e:f5:cf:84:6a:78:88:4a:55:09:
                    f7:df:69:7c:5e:26:43:af:7a:a6:6e:f8:75:16:fc:
                    da:fd:35:0e:ef:88:22:e5:71:ca:8f:c0:3c:f5:7d:
                    f9:b8:42:0f:2f:10:9b:c1:29:e7:05:31:d0:40:c5:
                    c7:76:57:50:ac
                ASN1 OID: prime256v1
        X509v3 extensions:
            X509v3 CRL Distribution Points: 

                Full Name:
                  URI:http://localhost:3755/ec256-1/crl/crl.der

            X509v3 Subject Key Identifier: 
                14:39:40:E4:8C:2C:2C:C7:A4:AB:21:48:45:B5:BA:EB:9D:18:50:26
            X509v3 Authority Key Identifier: 
                keyid:14:39:40:E4:8C:2C:2C:C7:A4:AB:21:48:45:B5:BA:EB:9D:18:50:26
                DirName:/C=US/ST=NC/L=RTP/O=IBM/O=Hyperledger/OU=FVT/CN=ec256Key
                serial:FD:19:68:0A:64:6B:1D:56

            X509v3 Basic Constraints: critical
                CA:TRUE
            X509v3 Key Usage: 
                Certificate Sign, CRL Sign
            X509v3 Certificate Policies: 
                Policy: X509v3 Any Policy

            X509v3 Subject Alternative Name: 
                IP Address:127.0.0.1
    Signature Algorithm: ecdsa-with-SHA256
         30:45:02:20:18:09:a3:30:21:a2:03:c8:1e:e2:9e:67:95:ed:
         93:a7:8c:61:25:c3:81:23:4e:51:62:b4:bf:fd:36:b3:fb:ee:
         02:21:00:c7:c3:c2:6c:f7:f7:2d:be:64:c6:54:62:b4:91:ee:
         4b:6a:3d:0f:f0:21:3b:07:5b:26:d3:f0:da:e3:e2:75:bd
-----BEGIN CERTIFICATE-----
MIIDFjCCArygAwIBAgIJAP0ZaApkax1WMAoGCCqGSM49BAMCMG0xCzAJBgNVBAYT
AlVTMQswCQYDVQQIEwJOQzEMMAoGA1UEBxMDUlRQMQwwCgYDVQQKEwNJQk0xFDAS
BgNVBAoTC0h5cGVybGVkZ2VyMQwwCgYDVQQLEwNGVlQxETAPBgNVBAMTCGVjMjU2
S2V5MB4XDTE3MDYwNjE4MjAzN1oXDTM3MDYwMTE4MjAzN1owbTELMAkGA1UEBhMC
VVMxCzAJBgNVBAgTAk5DMQwwCgYDVQQHEwNSVFAxDDAKBgNVBAoTA0lCTTEUMBIG
A1UEChMLSHlwZXJsZWRnZXIxDDAKBgNVBAsTA0ZWVDERMA8GA1UEAxMIZWMyNTZL
ZXkwWTATBgcqhkjOPQIBBggqhkjOPQMBBwNCAARAw2RlTvXPhGp4iEpVCfffaXxe
JkOveqZu+HUW/Nr9NQ7viCLlccqPwDz1ffm4Qg8vEJvBKecFMdBAxcd2V1Cso4IB
QzCCAT8wOgYDVR0fBDMwMTAvoC2gK4YpaHR0cDovL2xvY2FsaG9zdDozNzU1L2Vj
MjU2LTEvY3JsL2NybC5kZXIwHQYDVR0OBBYEFBQ5QOSMLCzHpKshSEW1uuudGFAm
MIGfBgNVHSMEgZcwgZSAFBQ5QOSMLCzHpKshSEW1uuudGFAmoXGkbzBtMQswCQYD
VQQGEwJVUzELMAkGA1UECBMCTkMxDDAKBgNVBAcTA1JUUDEMMAoGA1UEChMDSUJN
MRQwEgYDVQQKEwtIeXBlcmxlZGdlcjEMMAoGA1UECxMDRlZUMREwDwYDVQQDEwhl
YzI1NktleYIJAP0ZaApkax1WMA8GA1UdEwEB/wQFMAMBAf8wCwYDVR0PBAQDAgEG
MBEGA1UdIAQKMAgwBgYEVR0gADAPBgNVHREECDAGhwR/AAABMAoGCCqGSM49BAMC
A0gAMEUCIBgJozAhogPIHuKeZ5Xtk6eMYSXDgSNOUWK0v/02s/vuAiEAx8PCbPf3
Lb5kxlRitJHuS2o9D/AhOwdbJtPw2uPidb0=
-----END CERTIFICATE-----
