Certificate:
    Data:
        Version: 3 (0x2)
        Serial Number: 8020517536688742330 (0x6f4e9a34811f9fba)
    Signature Algorithm: ecdsa-with-SHA256
        Issuer: C=US, ST=NC, L=RTP, O=IBM, O=Hyperledger, OU=FVT, CN=ec256Key
        Validity
            Not Before: Jun  6 18:20:37 2017 GMT
            Not After : Jun  1 18:20:37 2037 GMT
        Subject: C=US, ST=NC, L=RTP, O=IBM, O=Hyperledger, OU=FVT, CN=ec256Key
        Subject Public Key Info:
            Public Key Algorithm: id-ecPublicKey
                Public-Key: (256 bit)
                pub: 
                    04:a6:e8:5b:d5:75:24:e0:31:e4:d4:de:c4:86:2a:
                    01:71:d1:c8:79:fa:fb:ee:d8:f0:0a:13:46:55:ae:
                    a2:be:4c:40:54:88:92:e5:bc:6c:1c:fc:12:60:32:
                    74:6f:9a:8b:2b:8f:94:9e:ca:c2:b9:03:a2:5a:ef:
                    16:b7:c1:70:fe
                ASN1 OID: prime256v1
        X509v3 extensions:
            X509v3 CRL Distribution Points: 

                Full Name:
                  URI:http://localhost:3755/ec256-2/crl/crl.der

            X509v3 Subject Key Identifier: 
                5D:2A:6A:28:B4:A8:24:98:37:45:E6:94:5E:78:44:E8:49:1A:A5:9D
            X509v3 Authority Key Identifier: 
                keyid:5D:2A:6A:28:B4:A8:24:98:37:45:E6:94:5E:78:44:E8:49:1A:A5:9D
                DirName:/C=US/ST=NC/L=RTP/O=IBM/O=Hyperledger/OU=FVT/CN=ec256Key
                serial:6F:4E:9A:34:81:1F:9F:BA

            X509v3 Basic Constraints: critical
                CA:TRUE
            X509v3 Key Usage: 
                Certificate Sign, CRL Sign
            X509v3 Certificate Policies: 
                Policy: X509v3 Any Policy

            X509v3 Subject Alternative Name: 
                IP Address:127.0.0.1
    Signature Algorithm: ecdsa-with-SHA256
         30:46:02:21:00:d3:98:55:63:30:af:5c:16:b8:2e:b8:17:3e:
         73:30:4a:25:f1:93:37:1a:9f:d5:a4:63:99:c6:93:cc:99:cc:
         5d:02:21:00:c3:d6:8b:44:55:bb:dc:d3:37:ae:39:00:ca:f5:
         d3:2e:17:b7:84:97:a8:b2:70:ee:79:0b:42:6c:cf:67:e4:8c
-----BEGIN CERTIFICATE-----
MIIDFTCCArqgAwIBAgIIb06aNIEfn7owCgYIKoZIzj0EAwIwbTELMAkGA1UEBhMC
VVMxCzAJBgNVBAgTAk5DMQwwCgYDVQQHEwNSVFAxDDAKBgNVBAoTA0lCTTEUMBIG
A1UEChMLSHlwZXJsZWRnZXIxDDAKBgNVBAsTA0ZWVDERMA8GA1UEAxMIZWMyNTZL
ZXkwHhcNMTcwNjA2MTgyMDM3WhcNMzcwNjAxMTgyMDM3WjBtMQswCQYDVQQGEwJV
UzELMAkGA1UECBMCTkMxDDAKBgNVBAcTA1JUUDEMMAoGA1UEChMDSUJNMRQwEgYD
VQQKEwtIeXBlcmxlZGdlcjEMMAoGA1UECxMDRlZUMREwDwYDVQQDEwhlYzI1Nktl
eTBZMBMGByqGSM49AgEGCCqGSM49AwEHA0IABKboW9V1JOAx5NTexIYqAXHRyHn6
++7Y8AoTRlWuor5MQFSIkuW8bBz8EmAydG+aiyuPlJ7KwrkDolrvFrfBcP6jggFC
MIIBPjA6BgNVHR8EMzAxMC+gLaArhilodHRwOi8vbG9jYWxob3N0OjM3NTUvZWMy
NTYtMi9jcmwvY3JsLmRlcjAdBgNVHQ4EFgQUXSpqKLSoJJg3ReaUXnhE6EkapZ0w
gZ4GA1UdIwSBljCBk4AUXSpqKLSoJJg3ReaUXnhE6EkapZ2hcaRvMG0xCzAJBgNV
BAYTAlVTMQswCQYDVQQIEwJOQzEMMAoGA1UEBxMDUlRQMQwwCgYDVQQKEwNJQk0x
FDASBgNVBAoTC0h5cGVybGVkZ2VyMQwwCgYDVQQLEwNGVlQxETAPBgNVBAMTCGVj
MjU2S2V5gghvTpo0gR+fujAPBgNVHRMBAf8EBTADAQH/MAsGA1UdDwQEAwIBBjAR
BgNVHSAECjAIMAYGBFUdIAAwDwYDVR0RBAgwBocEfwAAATAKBggqhkjOPQQDAgNJ
ADBGAiEA05hVYzCvXBa4LrgXPnMwSiXxkzcan9WkY5nGk8yZzF0CIQDD1otEVbvc
0zeuOQDK9dMuF7eEl6iycO55C0Jsz2fkjA==
-----END CERTIFICATE-----
