Certificate:
    Data:
        Version: 3 (0x2)
        Serial Number: 18237722559857237340 (0xfd19680a646b1d5c)
    Signature Algorithm: ecdsa-with-SHA512
        Issuer: C=US, ST=NC, L=RTP, O=IBM, O=Hyperledger, OU=FVT, CN=ec256Key
        Validity
            Not Before: Jan  1 00:00:00 2037 GMT
            Not After : Jan  1 00:00:00 2037 GMT
        Subject: C=US, ST=NC, L=RTP, O=IBM, O=Hyperledger, OU=FVT, CN=intCaEc570
        Subject Public Key Info:
            Public Key Algorithm: id-ecPublicKey
                Public-Key: (570 bit)
                pub: 
                    04:01:90:b6:56:4b:5c:0d:0c:8f:99:32:1d:b6:79:
                    2b:69:f3:eb:12:d0:57:fa:2e:cc:99:56:e0:2b:f1:
                    1d:2d:d4:db:44:81:60:ed:a6:7f:2a:a2:08:71:84:
                    f3:5d:14:26:d0:58:a4:5f:e7:ca:7e:ef:c0:f9:ee:
                    1b:11:0f:d0:30:47:49:4d:4d:a9:54:a5:8d:05:93:
                    46:94:cf:b6:87:d9:2c:8a:08:9b:da:6f:ef:d5:2b:
                    c6:6a:0e:5f:fc:19:b0:6b:91:0a:34:29:92:dc:17:
                    8a:8f:67:e6:e3:72:d5:b1:52:1c:7f:b6:30:45:45:
                    41:82:64:4e:e1:bb:72:3d:27:54:0e:39:90:4b:3a:
                    27:7c:c0:82:75:08:2b:e6:7a:58
                ASN1 OID: sect571r1
        X509v3 extensions:
            X509v3 CRL Distribution Points: 

                Full Name:
                  URI:http://localhost:3755/ec256-1/crl/crl.der

            X509v3 Subject Key Identifier: 
                37:32:6E:D2:78:D2:72:B1:63:C9:4F:10:F8:A8:06:03:9E:BE:91:19
            X509v3 Authority Key Identifier: 
                keyid:14:39:40:E4:8C:2C:2C:C7:A4:AB:21:48:45:B5:BA:EB:9D:18:50:26
                DirName:/C=US/ST=NC/L=RTP/O=IBM/O=Hyperledger/OU=FVT/CN=ec256Key
                serial:FD:19:68:0A:64:6B:1D:56

            X509v3 Basic Constraints: critical
                CA:TRUE
            X509v3 Key Usage: 
                Certificate Sign, CRL Sign
            X509v3 Certificate Policies: 
                Policy: X509v3 Any Policy

            X509v3 Subject Alternative Name: 
                IP Address:127.0.0.1
    Signature Algorithm: ecdsa-with-SHA512
         30:45:02:20:6c:b3:c2:85:d0:c9:ed:be:59:12:96:b1:95:86:
         b1:d5:07:1b:c1:0c:4e:e2:3a:20:36:8a:06:d5:d1:6d:89:0e:
         02:21:00:a9:21:97:04:14:81:03:e8:90:45:08:7d:d7:86:2e:
         1c:86:9d:8b:22:12:f7:1b:2b:c3:ce:2b:96:0a:b0:b6:7e
-----BEGIN CERTIFICATE-----
MIIDazCCAxGgAwIBAgIJAP0ZaApkax1cMAoGCCqGSM49BAMEMG0xCzAJBgNVBAYT
AlVTMQswCQYDVQQIEwJOQzEMMAoGA1UEBxMDUlRQMQwwCgYDVQQKEwNJQk0xFDAS
BgNVBAoTC0h5cGVybGVkZ2VyMQwwCgYDVQQLEwNGVlQxETAPBgNVBAMTCGVjMjU2
S2V5MCIYDzIwMzcwMTAxMDAwMDAwWhgPMjAzNzAxMDEwMDAwMDBaMG8xCzAJBgNV
BAYTAlVTMQswCQYDVQQIEwJOQzEMMAoGA1UEBxMDUlRQMQwwCgYDVQQKEwNJQk0x
FDASBgNVBAoTC0h5cGVybGVkZ2VyMQwwCgYDVQQLEwNGVlQxEzARBgNVBAMTCmlu
dENhRWM1NzAwgacwEAYHKoZIzj0CAQYFK4EEACcDgZIABAGQtlZLXA0Mj5kyHbZ5
K2nz6xLQV/ouzJlW4CvxHS3U20SBYO2mfyqiCHGE810UJtBYpF/nyn7vwPnuGxEP
0DBHSU1NqVSljQWTRpTPtofZLIoIm9pv79UrxmoOX/wZsGuRCjQpktwXio9n5uNy
1bFSHH+2MEVFQYJkTuG7cj0nVA45kEs6J3zAgnUIK+Z6WKOCAUMwggE/MDoGA1Ud
HwQzMDEwL6AtoCuGKWh0dHA6Ly9sb2NhbGhvc3Q6Mzc1NS9lYzI1Ni0xL2NybC9j
cmwuZGVyMB0GA1UdDgQWBBQ3Mm7SeNJysWPJTxD4qAYDnr6RGTCBnwYDVR0jBIGX
MIGUgBQUOUDkjCwsx6SrIUhFtbrrnRhQJqFxpG8wbTELMAkGA1UEBhMCVVMxCzAJ
BgNVBAgTAk5DMQwwCgYDVQQHEwNSVFAxDDAKBgNVBAoTA0lCTTEUMBIGA1UEChML
SHlwZXJsZWRnZXIxDDAKBgNVBAsTA0ZWVDERMA8GA1UEAxMIZWMyNTZLZXmCCQD9
GWgKZGsdVjAPBgNVHRMBAf8EBTADAQH/MAsGA1UdDwQEAwIBBjARBgNVHSAECjAI
MAYGBFUdIAAwDwYDVR0RBAgwBocEfwAAATAKBggqhkjOPQQDBANIADBFAiBss8KF
0MntvlkSlrGVhrHVBxvBDE7iOiA2igbV0W2JDgIhAKkhlwQUgQPokEUIfdeGLhyG
nYsiEvcbK8POK5YKsLZ+
-----END CERTIFICATE-----
