Certificate:
    Data:
        Version: 3 (0x2)
        Serial Number: 17339023897112146170 (0xf0a0965e4b60f0fa)
    Signature Algorithm: sha256WithRSAEncryption
        Issuer: C=US, ST=North Carolina, L=RTP, O=Hyperledger, OU=fabric-ca, CN=lowBit
        Validity
            Not Before: Sep 20 20:31:28 2017 GMT
            Not After : Sep 20 20:25:53 2027 GMT
        Subject: C=US, ST=North Carolina, L=RTP, O=Hyperledger, OU=fabric-ca, CN=lowBit
        Subject Public Key Info:
            Public Key Algorithm: rsaEncryption
                Public-Key: (1024 bit)
                Modulus:
                    00:af:1a:6e:8d:14:2b:db:02:b1:be:00:0b:6d:41:
                    9b:88:0b:a2:75:13:b2:46:59:e5:b1:1c:81:86:cf:
                    0f:5f:23:87:0c:e7:37:a1:f5:73:6f:1c:a2:75:5b:
                    4d:aa:83:6d:9a:41:ac:13:89:5b:14:0b:fb:90:69:
                    ef:98:7a:16:93:56:ea:66:15:0c:09:19:2b:77:74:
                    0f:19:29:bc:e3:48:48:1e:41:31:3d:bf:3b:e8:43:
                    03:3f:a5:53:2c:27:5b:19:18:d4:57:bd:ce:60:f4:
                    e7:fc:20:60:0c:40:d1:8f:24:99:b3:a9:aa:a9:51:
                    3e:d0:bb:43:98:79:a1:f6:f7
                Exponent: 65537 (0x10001)
        X509v3 extensions:
            X509v3 CRL Distribution Points: 

                Full Name:
                  URI:http://localhost:3755/lowbit/crl/crl.der

            X509v3 Subject Key Identifier: 
                4B:48:78:B3:69:89:BF:EF:37:C7:76:CC:52:69:8E:3F:D7:FF:C7:CB
            X509v3 Authority Key Identifier: 
                keyid:4B:48:78:B3:69:89:BF:EF:37:C7:76:CC:52:69:8E:3F:D7:FF:C7:CB
                DirName:/C=US/ST=North Carolina/L=RTP/O=Hyperledger/OU=fabric-ca/CN=lowBit
                serial:F0:A0:96:5E:4B:60:F0:FA

            X509v3 Basic Constraints: critical
                CA:TRUE
            X509v3 Key Usage: 
                Certificate Sign, CRL Sign
            X509v3 Certificate Policies: 
                Policy: X509v3 Any Policy

            X509v3 Subject Alternative Name: 
                IP Address:0:0:0:0:0:0:0:1, DNS:localhost, email:user@localhost
    Signature Algorithm: sha256WithRSAEncryption
         77:f8:43:dc:43:d2:38:02:54:4c:54:59:ba:56:32:f3:27:1e:
         b9:af:73:a1:f1:5c:1e:50:16:1b:9a:a3:40:c5:98:8a:d2:14:
         5b:8a:4e:46:13:eb:db:7b:1c:5f:7f:1e:f7:52:db:4d:8c:d5:
         9a:16:ad:3b:d0:d7:1e:fd:44:a9:f0:45:12:4e:93:40:a4:0a:
         73:02:e4:c2:79:00:06:4e:8b:07:8d:0a:15:7d:7a:fe:01:9f:
         aa:22:ff:e2:f6:03:a0:42:fd:93:05:79:41:ce:50:d4:70:ed:
         54:f0:c4:25:01:a7:5f:57:75:5a:04:6c:62:b2:e3:ae:73:fa:
         10:18
-----BEGIN CERTIFICATE-----
MIIDyTCCAzKgAwIBAgIJAPCgll5LYPD6MA0GCSqGSIb3DQEBCwUAMG8xCzAJBgNV
BAYTAlVTMRcwFQYDVQQIDA5Ob3J0aCBDYXJvbGluYTEMMAoGA1UEBwwDUlRQMRQw
EgYDVQQKDAtIeXBlcmxlZGdlcjESMBAGA1UECwwJZmFicmljLWNhMQ8wDQYDVQQD
DAZsb3dCaXQwHhcNMTcwOTIwMjAzMTI4WhcNMjcwOTIwMjAyNTUzWjBvMQswCQYD
VQQGEwJVUzEXMBUGA1UECAwOTm9ydGggQ2Fyb2xpbmExDDAKBgNVBAcMA1JUUDEU
MBIGA1UECgwLSHlwZXJsZWRnZXIxEjAQBgNVBAsMCWZhYnJpYy1jYTEPMA0GA1UE
AwwGbG93Qml0MIGfMA0GCSqGSIb3DQEBAQUAA4GNADCBiQKBgQCvGm6NFCvbArG+
AAttQZuIC6J1E7JGWeWxHIGGzw9fI4cM5zeh9XNvHKJ1W02qg22aQawTiVsUC/uQ
ae+YehaTVupmFQwJGSt3dA8ZKbzjSEgeQTE9vzvoQwM/pVMsJ1sZGNRXvc5g9Of8
IGAMQNGPJJmzqaqpUT7Qu0OYeaH29wIDAQABo4IBazCCAWcwOQYDVR0fBDIwMDAu
oCygKoYoaHR0cDovL2xvY2FsaG9zdDozNzU1L2xvd2JpdC9jcmwvY3JsLmRlcjAd
BgNVHQ4EFgQUS0h4s2mJv+83x3bMUmmOP9f/x8swgaEGA1UdIwSBmTCBloAUS0h4
s2mJv+83x3bMUmmOP9f/x8uhc6RxMG8xCzAJBgNVBAYTAlVTMRcwFQYDVQQIDA5O
b3J0aCBDYXJvbGluYTEMMAoGA1UEBwwDUlRQMRQwEgYDVQQKDAtIeXBlcmxlZGdl
cjESMBAGA1UECwwJZmFicmljLWNhMQ8wDQYDVQQDDAZsb3dCaXSCCQDwoJZeS2Dw
+jAPBgNVHRMBAf8EBTADAQH/MAsGA1UdDwQEAwIBBjARBgNVHSAECjAIMAYGBFUd
IAAwNgYDVR0RBC8wLYcQAAAAAAAAAAAAAAAAAAAAAYIJbG9jYWxob3N0gQ51c2Vy
QGxvY2FsaG9zdDANBgkqhkiG9w0BAQsFAAOBgQB3+EPcQ9I4AlRMVFm6VjLzJx65
r3Oh8VweUBYbmqNAxZiK0hRbik5GE+vbexxffx73UttNjNWaFq070Nce/USp8EUS
TpNApApzAuTCeQAGTosHjQoVfXr+AZ+qIv/i9gOgQv2TBXlBzlDUcO1U8MQlAadf
V3VaBGxisuOuc/oQGA==
-----END CERTIFICATE-----
