Certificate:
    Data:
        Version: 3 (0x2)
        Serial Number: 12659756916453410653 (0xafb07dd75c00075d)
    Signature Algorithm: ecdsa-with-SHA256
        Issuer: C=US, ST=North Carolina, L=RTP, O=Hyperledger, OU=fabric-ca, CN=noKeyUsage
        Validity
            Not Before: Sep 21 16:13:31 2017 GMT
            Not After : Sep 21 15:40:29 2027 GMT
        Subject: C=US, ST=North Carolina, L=RTP, O=Hyperledger, OU=fabric-ca, CN=noKeyUsage
        Subject Public Key Info:
            Public Key Algorithm: id-ecPublicKey
                Public-Key: (256 bit)
                pub: 
                    04:16:40:e6:35:69:39:a7:0f:d4:b9:4e:8d:98:53:
                    5b:95:7f:ea:ea:4b:4c:ed:48:a7:99:37:93:93:57:
                    06:04:83:6a:15:66:ee:03:4b:c0:64:ee:a5:86:a2:
                    b8:84:07:4d:3f:6a:68:6e:9c:36:62:84:5c:3f:0a:
                    a9:01:85:14:88
                ASN1 OID: prime256v1
                NIST CURVE: P-256
        X509v3 extensions:
            X509v3 CRL Distribution Points: 

                Full Name:
                  URI:http://localhost:3755/noKeyUsage/crl/crl.der

            X509v3 Subject Key Identifier: 
                A2:91:3C:AF:54:37:17:7D:C6:79:F5:AD:16:5F:7B:AA:12:FC:28:02
            X509v3 Authority Key Identifier: 
                keyid:A2:91:3C:AF:54:37:17:7D:C6:79:F5:AD:16:5F:7B:AA:12:FC:28:02
                DirName:/C=US/ST=North Carolina/L=RTP/O=Hyperledger/OU=fabric-ca/CN=noKeyUsage
                serial:AF:B0:7D:D7:5C:00:07:5D

            X509v3 Basic Constraints: critical
                CA:TRUE
            X509v3 Certificate Policies: 
                Policy: X509v3 Any Policy

            X509v3 Subject Alternative Name: 
                IP Address:127.0.0.1, IP Address:0:0:0:0:0:0:0:1, DNS:localhost, email:admin@localhost
    Signature Algorithm: ecdsa-with-SHA256
         30:44:02:20:2f:a6:60:f9:44:7f:2a:65:f4:3d:12:59:0a:57:
         de:c7:df:60:93:01:1d:a2:9d:72:24:f1:be:1b:b6:b6:e6:35:
         02:20:76:90:d6:2c:a7:d0:08:d2:63:de:c4:3d:d9:55:e1:14:
         45:f8:f3:70:07:16:e1:87:5d:2b:a4:94:8e:a8:e9:a4
-----BEGIN CERTIFICATE-----
MIIDSzCCAvKgAwIBAgIJAK+wfddcAAddMAoGCCqGSM49BAMCMHMxCzAJBgNVBAYT
AlVTMRcwFQYDVQQIDA5Ob3J0aCBDYXJvbGluYTEMMAoGA1UEBwwDUlRQMRQwEgYD
VQQKDAtIeXBlcmxlZGdlcjESMBAGA1UECwwJZmFicmljLWNhMRMwEQYDVQQDDApu
b0tleVVzYWdlMB4XDTE3MDkyMTE2MTMzMVoXDTI3MDkyMTE1NDAyOVowczELMAkG
A1UEBhMCVVMxFzAVBgNVBAgMDk5vcnRoIENhcm9saW5hMQwwCgYDVQQHDANSVFAx
FDASBgNVBAoMC0h5cGVybGVkZ2VyMRIwEAYDVQQLDAlmYWJyaWMtY2ExEzARBgNV
BAMMCm5vS2V5VXNhZ2UwWTATBgcqhkjOPQIBBggqhkjOPQMBBwNCAAQWQOY1aTmn
D9S5To2YU1uVf+rqS0ztSKeZN5OTVwYEg2oVZu4DS8Bk7qWGoriEB00/amhunDZi
hFw/CqkBhRSIo4IBbTCCAWkwPQYDVR0fBDYwNDAyoDCgLoYsaHR0cDovL2xvY2Fs
aG9zdDozNzU1L25vS2V5VXNhZ2UvY3JsL2NybC5kZXIwHQYDVR0OBBYEFKKRPK9U
Nxd9xnn1rRZfe6oS/CgCMIGlBgNVHSMEgZ0wgZqAFKKRPK9UNxd9xnn1rRZfe6oS
/CgCoXekdTBzMQswCQYDVQQGEwJVUzEXMBUGA1UECAwOTm9ydGggQ2Fyb2xpbmEx
DDAKBgNVBAcMA1JUUDEUMBIGA1UECgwLSHlwZXJsZWRnZXIxEjAQBgNVBAsMCWZh
YnJpYy1jYTETMBEGA1UEAwwKbm9LZXlVc2FnZYIJAK+wfddcAAddMA8GA1UdEwEB
/wQFMAMBAf8wEQYDVR0gBAowCDAGBgRVHSAAMD0GA1UdEQQ2MDSHBH8AAAGHEAAA
AAAAAAAAAAAAAAAAAAGCCWxvY2FsaG9zdIEPYWRtaW5AbG9jYWxob3N0MAoGCCqG
SM49BAMCA0cAMEQCIC+mYPlEfypl9D0SWQpX3sffYJMBHaKdciTxvhu2tuY1AiB2
kNYsp9AI0mPexD3ZVeEURfjzcAcW4YddK6SUjqjppA==
-----END CERTIFICATE-----
