Certificate:
    Data:
        Version: 3 (0x2)
        Serial Number: 7585067814722738462 (0x694392fd75cc191e)
    Signature Algorithm: sha256WithRSAEncryption
        Issuer: C=US, ST=NC, L=RTP, O=IBM, O=Hyperledger, OU=FVT, CN=rsa2048Key
        Validity
            Not Before: Jun  6 18:20:37 2017 GMT
            Not After : Jun  1 18:20:37 2037 GMT
        Subject: C=US, ST=NC, L=RTP, O=IBM, O=Hyperledger, OU=FVT, CN=rsa2048Key
        Subject Public Key Info:
            Public Key Algorithm: rsaEncryption
                Public-Key: (2048 bit)
                Modulus:
                    00:c6:15:cd:73:c6:9e:39:9e:95:2c:6b:06:c4:a7:
                    66:47:0c:82:19:ce:0a:f5:f0:32:58:af:e5:2c:b0:
                    da:6d:5c:83:73:30:05:31:8b:05:b8:63:46:42:b0:
                    52:56:30:b0:36:68:87:fe:66:80:76:5c:b9:bd:e5:
                    3f:f4:37:10:69:72:37:1d:a9:66:71:60:a7:60:d2:
                    ee:39:86:06:ca:46:0f:03:95:18:87:63:b5:96:77:
                    5d:9e:28:d4:24:b3:5b:75:21:0e:18:c9:7b:e5:2b:
                    8f:e3:a0:02:4c:7f:c9:ea:ab:b1:fb:3d:af:0a:44:
                    45:4e:ba:13:94:11:81:ff:dd:1e:41:7c:d1:24:3e:
                    1c:43:3f:87:8e:94:f1:1d:68:5f:65:b0:79:92:5e:
                    20:ed:82:41:32:1b:7e:ee:79:93:1b:03:1c:aa:8b:
                    b7:28:77:06:5d:7c:af:20:d1:21:ad:8c:a1:f4:53:
                    bd:53:a9:4e:61:fb:64:32:6a:e6:6e:8b:b7:b1:f0:
                    95:d5:99:c2:1e:38:c5:b4:a8:70:e2:98:27:78:cc:
                    da:23:31:cc:0e:b6:ee:98:ba:ad:08:11:b1:3c:8b:
                    ca:8b:79:ef:01:00:42:35:12:24:65:60:e2:b6:db:
                    1f:a7:b2:8c:34:66:2d:de:50:d2:26:69:04:cd:86:
                    5e:97
                Exponent: 65537 (0x10001)
        X509v3 extensions:
            X509v3 CRL Distribution Points: 

                Full Name:
                  URI:http://localhost:3755/rsa2048-2/crl/crl.der

            X509v3 Subject Key Identifier: 
                F5:7D:6B:58:67:29:AE:89:29:54:59:77:B0:2A:75:55:A5:6F:E6:DA
            X509v3 Authority Key Identifier: 
                keyid:F5:7D:6B:58:67:29:AE:89:29:54:59:77:B0:2A:75:55:A5:6F:E6:DA
                DirName:/C=US/ST=NC/L=RTP/O=IBM/O=Hyperledger/OU=FVT/CN=rsa2048Key
                serial:69:43:92:FD:75:CC:19:1E

            X509v3 Basic Constraints: critical
                CA:TRUE
            X509v3 Key Usage: 
                Certificate Sign, CRL Sign
            X509v3 Certificate Policies: 
                Policy: X509v3 Any Policy

            X509v3 Subject Alternative Name: 
                IP Address:127.0.0.1
    Signature Algorithm: sha256WithRSAEncryption
         ab:ba:51:f3:c3:f3:76:44:d5:af:e8:f0:7e:a5:f8:9a:e4:38:
         c1:b3:70:5d:b3:78:22:58:36:66:3c:ae:43:11:70:0c:ba:7a:
         7e:da:98:88:71:92:85:51:e0:8f:89:5a:fa:8d:3d:50:4f:5d:
         05:de:03:9d:5c:d5:54:01:b3:27:19:43:37:5c:66:b0:ef:eb:
         bd:5f:4b:68:7f:61:28:e1:af:ba:78:b7:b2:2d:a5:ae:b3:1e:
         3f:fb:58:04:e0:9e:06:40:34:d1:3e:b5:32:a1:09:dc:45:d6:
         d2:1b:18:07:38:52:e4:4a:05:fd:b8:2e:7c:8f:2b:ae:23:08:
         6c:1f:73:e5:74:4e:de:98:c3:c7:bb:a9:64:f1:01:aa:41:8f:
         e5:4c:fe:df:ab:c2:11:fc:ef:50:54:98:d4:5d:3a:2f:13:3b:
         15:07:46:1e:38:c3:8c:99:f0:af:b8:2f:3a:59:93:ef:91:30:
         e9:3b:87:40:23:9d:da:11:3a:f4:ad:b3:bf:81:87:7b:e4:87:
         2e:41:f9:d1:05:9a:e5:e6:66:ca:5d:0f:9f:aa:5f:4f:96:cd:
         d0:ea:a0:3a:1a:6a:bc:e9:e2:d4:27:fe:f8:23:68:31:1f:49:
         c1:0e:11:45:12:c9:7b:e0:26:8e:33:dc:d7:f1:1f:96:81:76:
         56:7b:1a:79
-----BEGIN CERTIFICATE-----
MIIEqDCCA5CgAwIBAgIIaUOS/XXMGR4wDQYJKoZIhvcNAQELBQAwbzELMAkGA1UE
BhMCVVMxCzAJBgNVBAgTAk5DMQwwCgYDVQQHEwNSVFAxDDAKBgNVBAoTA0lCTTEU
MBIGA1UEChMLSHlwZXJsZWRnZXIxDDAKBgNVBAsTA0ZWVDETMBEGA1UEAxMKcnNh
MjA0OEtleTAeFw0xNzA2MDYxODIwMzdaFw0zNzA2MDExODIwMzdaMG8xCzAJBgNV
BAYTAlVTMQswCQYDVQQIEwJOQzEMMAoGA1UEBxMDUlRQMQwwCgYDVQQKEwNJQk0x
FDASBgNVBAoTC0h5cGVybGVkZ2VyMQwwCgYDVQQLEwNGVlQxEzARBgNVBAMTCnJz
YTIwNDhLZXkwggEiMA0GCSqGSIb3DQEBAQUAA4IBDwAwggEKAoIBAQDGFc1zxp45
npUsawbEp2ZHDIIZzgr18DJYr+UssNptXINzMAUxiwW4Y0ZCsFJWMLA2aIf+ZoB2
XLm95T/0NxBpcjcdqWZxYKdg0u45hgbKRg8DlRiHY7WWd12eKNQks1t1IQ4YyXvl
K4/joAJMf8nqq7H7Pa8KREVOuhOUEYH/3R5BfNEkPhxDP4eOlPEdaF9lsHmSXiDt
gkEyG37ueZMbAxyqi7codwZdfK8g0SGtjKH0U71TqU5h+2QyauZui7ex8JXVmcIe
OMW0qHDimCd4zNojMcwOtu6Yuq0IEbE8i8qLee8BAEI1EiRlYOK22x+nsow0Zi3e
UNImaQTNhl6XAgMBAAGjggFGMIIBQjA8BgNVHR8ENTAzMDGgL6AthitodHRwOi8v
bG9jYWxob3N0OjM3NTUvcnNhMjA0OC0yL2NybC9jcmwuZGVyMB0GA1UdDgQWBBT1
fWtYZymuiSlUWXewKnVVpW/m2jCBoAYDVR0jBIGYMIGVgBT1fWtYZymuiSlUWXew
KnVVpW/m2qFzpHEwbzELMAkGA1UEBhMCVVMxCzAJBgNVBAgTAk5DMQwwCgYDVQQH
EwNSVFAxDDAKBgNVBAoTA0lCTTEUMBIGA1UEChMLSHlwZXJsZWRnZXIxDDAKBgNV
BAsTA0ZWVDETMBEGA1UEAxMKcnNhMjA0OEtleYIIaUOS/XXMGR4wDwYDVR0TAQH/
BAUwAwEB/zALBgNVHQ8EBAMCAQYwEQYDVR0gBAowCDAGBgRVHSAAMA8GA1UdEQQI
MAaHBH8AAAEwDQYJKoZIhvcNAQELBQADggEBAKu6UfPD83ZE1a/o8H6l+JrkOMGz
cF2zeCJYNmY8rkMRcAy6en7amIhxkoVR4I+JWvqNPVBPXQXeA51c1VQBsycZQzdc
ZrDv671fS2h/YSjhr7p4t7Itpa6zHj/7WATgngZANNE+tTKhCdxF1tIbGAc4UuRK
Bf24LnyPK64jCGwfc+V0Tt6Yw8e7qWTxAapBj+VM/t+rwhH871BUmNRdOi8TOxUH
Rh44w4yZ8K+4LzpZk++RMOk7h0AjndoROvSts7+Bh3vkhy5B+dEFmuXmZspdD5+q
X0+WzdDqoDoaarzp4tQn/vgjaDEfScEOEUUSyXvgJo4z3NfxH5aBdlZ7Gnk=
-----END CERTIFICATE-----
