Certificate:
    Data:
        Version: 3 (0x2)
        Serial Number: 16737756526973187080 (0xe84874e17f367408)
    Signature Algorithm: sha256WithRSAEncryption
        Issuer: C=US, ST=NC, L=RTP, O=IBM, O=Hyperledger, OU=FVT, CN=rsa2048Key
        Validity
            Not Before: Jun  6 18:20:36 2017 GMT
            Not After : Jun  1 18:20:36 2037 GMT
        Subject: C=US, ST=NC, L=RTP, O=IBM, O=Hyperledger, OU=FVT, CN=rsa2048Key
        Subject Public Key Info:
            Public Key Algorithm: rsaEncryption
                Public-Key: (2048 bit)
                Modulus:
                    00:eb:80:09:23:05:03:35:3b:ad:87:c7:66:6f:e6:
                    48:96:6c:dc:d9:80:12:87:95:ca:98:6b:25:70:0e:
                    52:dc:28:5e:f9:52:ea:d0:80:40:d0:bc:73:79:6f:
                    1e:dc:6b:9d:76:c9:9c:27:c7:ac:5e:eb:5f:d3:aa:
                    c3:1d:0e:7d:a6:a0:a1:98:03:df:84:80:bc:47:e7:
                    7d:f5:58:53:0f:92:b0:e4:fc:2d:5c:74:83:e9:73:
                    25:61:09:d4:37:f4:82:8a:f6:77:d6:40:cc:74:32:
                    6e:27:02:e2:e1:f0:7c:89:c6:69:9f:cd:0c:d9:02:
                    37:ab:0d:1f:ec:0e:72:9c:47:ef:af:59:e6:c4:37:
                    eb:e7:0a:9e:12:5a:65:57:f6:dc:16:64:d4:13:91:
                    c1:70:0f:ee:42:06:f5:d1:23:ee:9b:e8:9c:2c:cc:
                    67:39:d6:67:2a:fa:5e:fe:bc:28:89:9d:37:87:92:
                    08:c9:da:25:80:03:43:13:48:e2:d3:c6:8c:9d:18:
                    4e:29:66:81:d6:09:ae:59:e9:d1:88:44:09:62:83:
                    4d:bc:9d:f2:36:c3:46:1a:3a:9e:4f:a6:2d:c0:54:
                    5e:d3:00:50:37:31:ed:a5:3d:1a:27:0f:43:c2:a0:
                    31:1f:1d:5a:61:c0:5b:83:96:e6:5b:62:b4:ca:7e:
                    ef:eb
                Exponent: 65537 (0x10001)
        X509v3 extensions:
            X509v3 CRL Distribution Points: 

                Full Name:
                  URI:http://localhost:3755/rsa2048-1/crl/crl.der

            X509v3 Subject Key Identifier: 
                1E:40:4C:71:D3:DC:25:4C:75:B2:D5:EF:AA:F4:85:C3:D9:F5:9F:35
            X509v3 Authority Key Identifier: 
                keyid:1E:40:4C:71:D3:DC:25:4C:75:B2:D5:EF:AA:F4:85:C3:D9:F5:9F:35
                DirName:/C=US/ST=NC/L=RTP/O=IBM/O=Hyperledger/OU=FVT/CN=rsa2048Key
                serial:E8:48:74:E1:7F:36:74:08

            X509v3 Basic Constraints: critical
                CA:TRUE
            X509v3 Key Usage: 
                Certificate Sign, CRL Sign
            X509v3 Certificate Policies: 
                Policy: X509v3 Any Policy

            X509v3 Subject Alternative Name: 
                IP Address:127.0.0.1
    Signature Algorithm: sha256WithRSAEncryption
         40:86:8b:4a:19:59:d3:57:a8:d6:c6:55:44:44:9d:e8:73:58:
         1f:7a:a6:1e:62:9e:17:72:91:e4:e6:08:ee:8a:c4:9b:a2:cc:
         c6:db:b6:12:8e:62:cf:fb:b5:3c:f0:0e:16:cb:b0:21:a8:29:
         6e:b4:61:38:97:51:81:23:99:49:08:35:3e:e1:ac:aa:02:2f:
         41:0e:24:d5:99:8b:c1:f4:0b:a9:fa:97:ce:85:08:e2:1b:75:
         52:aa:e1:95:d5:01:23:a1:bc:87:20:6c:d8:60:9a:c9:e2:f6:
         a6:e2:73:0f:25:bf:0c:3d:4a:b7:b9:0a:69:86:c5:b9:75:d9:
         84:fb:f1:96:d9:c7:9c:e7:b1:65:99:52:bf:82:4e:c3:ad:49:
         cd:be:9c:4d:7b:9f:07:8a:f0:db:6e:86:2a:3e:30:7f:7f:20:
         63:8d:15:7f:2c:6d:f8:c1:21:dd:53:9a:f4:c9:81:ff:86:19:
         4f:42:77:62:b6:8f:25:4d:74:fb:56:3d:55:89:eb:56:01:bb:
         fb:1e:99:eb:be:9b:f3:87:3c:b0:b0:2d:dc:a1:60:b9:21:a0:
         45:a2:f8:90:e8:ac:28:81:43:f3:e8:5a:cd:07:9d:1b:11:d9:
         9a:33:d5:1a:32:60:21:8a:bf:92:84:72:30:95:db:9d:56:39:
         0e:b9:45:04
-----BEGIN CERTIFICATE-----
MIIEqjCCA5KgAwIBAgIJAOhIdOF/NnQIMA0GCSqGSIb3DQEBCwUAMG8xCzAJBgNV
BAYTAlVTMQswCQYDVQQIEwJOQzEMMAoGA1UEBxMDUlRQMQwwCgYDVQQKEwNJQk0x
FDASBgNVBAoTC0h5cGVybGVkZ2VyMQwwCgYDVQQLEwNGVlQxEzARBgNVBAMTCnJz
YTIwNDhLZXkwHhcNMTcwNjA2MTgyMDM2WhcNMzcwNjAxMTgyMDM2WjBvMQswCQYD
VQQGEwJVUzELMAkGA1UECBMCTkMxDDAKBgNVBAcTA1JUUDEMMAoGA1UEChMDSUJN
MRQwEgYDVQQKEwtIeXBlcmxlZGdlcjEMMAoGA1UECxMDRlZUMRMwEQYDVQQDEwpy
c2EyMDQ4S2V5MIIBIjANBgkqhkiG9w0BAQEFAAOCAQ8AMIIBCgKCAQEA64AJIwUD
NTuth8dmb+ZIlmzc2YASh5XKmGslcA5S3Che+VLq0IBA0LxzeW8e3GuddsmcJ8es
Xutf06rDHQ59pqChmAPfhIC8R+d99VhTD5Kw5PwtXHSD6XMlYQnUN/SCivZ31kDM
dDJuJwLi4fB8icZpn80M2QI3qw0f7A5ynEfvr1nmxDfr5wqeElplV/bcFmTUE5HB
cA/uQgb10SPum+icLMxnOdZnKvpe/rwoiZ03h5IIydolgANDE0ji08aMnRhOKWaB
1gmuWenRiEQJYoNNvJ3yNsNGGjqeT6YtwFRe0wBQNzHtpT0aJw9DwqAxHx1aYcBb
g5bmW2K0yn7v6wIDAQABo4IBRzCCAUMwPAYDVR0fBDUwMzAxoC+gLYYraHR0cDov
L2xvY2FsaG9zdDozNzU1L3JzYTIwNDgtMS9jcmwvY3JsLmRlcjAdBgNVHQ4EFgQU
HkBMcdPcJUx1stXvqvSFw9n1nzUwgaEGA1UdIwSBmTCBloAUHkBMcdPcJUx1stXv
qvSFw9n1nzWhc6RxMG8xCzAJBgNVBAYTAlVTMQswCQYDVQQIEwJOQzEMMAoGA1UE
BxMDUlRQMQwwCgYDVQQKEwNJQk0xFDASBgNVBAoTC0h5cGVybGVkZ2VyMQwwCgYD
VQQLEwNGVlQxEzARBgNVBAMTCnJzYTIwNDhLZXmCCQDoSHThfzZ0CDAPBgNVHRMB
Af8EBTADAQH/MAsGA1UdDwQEAwIBBjARBgNVHSAECjAIMAYGBFUdIAAwDwYDVR0R
BAgwBocEfwAAATANBgkqhkiG9w0BAQsFAAOCAQEAQIaLShlZ01eo1sZVRESd6HNY
H3qmHmKeF3KR5OYI7orEm6LMxtu2Eo5iz/u1PPAOFsuwIagpbrRhOJdRgSOZSQg1
PuGsqgIvQQ4k1ZmLwfQLqfqXzoUI4ht1UqrhldUBI6G8hyBs2GCayeL2puJzDyW/
DD1Kt7kKaYbFuXXZhPvxltnHnOexZZlSv4JOw61Jzb6cTXufB4rw226GKj4wf38g
Y40Vfyxt+MEh3VOa9MmB/4YZT0J3YraPJU10+1Y9VYnrVgG7+x6Z676b84c8sLAt
3KFguSGgRaL4kOisKIFD8+hazQedGxHZmjPVGjJgIYq/koRyMJXbnVY5DrlFBA==
-----END CERTIFICATE-----
