Certificate:
    Data:
        Version: 3 (0x2)
        Serial Number: 4680151120158112405 (0x40f33ca5b42bba95)
    Signature Algorithm: sha256WithRSAEncryption
        Issuer: C=US, ST=NC, L=RTP, O=IBM, O=Hyperledger, OU=FVT, CN=rsa512Key
        Validity
            Not Before: Jun  6 18:06:02 2017 GMT
            Not After : Jun  1 18:06:02 2037 GMT
        Subject: C=US, ST=NC, L=RTP, O=IBM, O=Hyperledger, OU=FVT, CN=rsa512Key
        Subject Public Key Info:
            Public Key Algorithm: rsaEncryption
                Public-Key: (512 bit)
                Modulus:
                    00:a7:52:be:d3:4c:57:80:b6:7c:11:26:a8:ba:26:
                    40:11:03:da:1c:82:18:ce:39:b0:e0:57:d9:46:57:
                    28:d4:ea:b0:38:d5:ad:5f:b4:0e:96:96:11:94:75:
                    67:3b:9e:28:f0:12:cd:72:94:45:eb:ba:8b:3a:6e:
                    8c:37:ee:e4:a1
                Exponent: 65537 (0x10001)
        X509v3 extensions:
            X509v3 CRL Distribution Points: 

                Full Name:
                  URI:http://localhost:3755/rsa512/crl/crl.der

            X509v3 Subject Key Identifier: 
                5C:BA:0C:B4:C3:27:59:63:7C:CA:4E:DD:19:16:65:CD:38:50:B5:E2
            X509v3 Authority Key Identifier: 
                keyid:5C:BA:0C:B4:C3:27:59:63:7C:CA:4E:DD:19:16:65:CD:38:50:B5:E2
                DirName:/C=US/ST=NC/L=RTP/O=IBM/O=Hyperledger/OU=FVT/CN=rsa512Key
                serial:40:F3:3C:A5:B4:2B:BA:95

            X509v3 Basic Constraints: critical
                CA:TRUE
            X509v3 Key Usage: 
                Certificate Sign, CRL Sign
            X509v3 Certificate Policies: 
                Policy: X509v3 Any Policy

            X509v3 Subject Alternative Name: 
                IP Address:127.0.0.1
    Signature Algorithm: sha256WithRSAEncryption
         3c:7e:1e:92:70:f6:d5:76:f6:ac:a2:5d:90:8d:51:7d:97:2f:
         7a:e0:47:1c:36:4e:23:5f:6d:3c:47:70:c3:88:51:32:96:29:
         76:27:50:44:9e:06:63:e0:1d:b1:f6:3c:06:5d:55:ac:b3:91:
         7b:e4:15:bc:ba:64:29:33:5f:70
-----BEGIN CERTIFICATE-----
MIIDGDCCAsKgAwIBAgIIQPM8pbQrupUwDQYJKoZIhvcNAQELBQAwbjELMAkGA1UE
BhMCVVMxCzAJBgNVBAgTAk5DMQwwCgYDVQQHEwNSVFAxDDAKBgNVBAoTA0lCTTEU
MBIGA1UEChMLSHlwZXJsZWRnZXIxDDAKBgNVBAsTA0ZWVDESMBAGA1UEAxMJcnNh
NTEyS2V5MB4XDTE3MDYwNjE4MDYwMloXDTM3MDYwMTE4MDYwMlowbjELMAkGA1UE
BhMCVVMxCzAJBgNVBAgTAk5DMQwwCgYDVQQHEwNSVFAxDDAKBgNVBAoTA0lCTTEU
MBIGA1UEChMLSHlwZXJsZWRnZXIxDDAKBgNVBAsTA0ZWVDESMBAGA1UEAxMJcnNh
NTEyS2V5MFwwDQYJKoZIhvcNAQEBBQADSwAwSAJBAKdSvtNMV4C2fBEmqLomQBED
2hyCGM45sOBX2UZXKNTqsDjVrV+0DpaWEZR1ZzueKPASzXKUReu6izpujDfu5KEC
AwEAAaOCAUIwggE+MDkGA1UdHwQyMDAwLqAsoCqGKGh0dHA6Ly9sb2NhbGhvc3Q6
Mzc1NS9yc2E1MTIvY3JsL2NybC5kZXIwHQYDVR0OBBYEFFy6DLTDJ1ljfMpO3RkW
Zc04ULXiMIGfBgNVHSMEgZcwgZSAFFy6DLTDJ1ljfMpO3RkWZc04ULXioXKkcDBu
MQswCQYDVQQGEwJVUzELMAkGA1UECBMCTkMxDDAKBgNVBAcTA1JUUDEMMAoGA1UE
ChMDSUJNMRQwEgYDVQQKEwtIeXBlcmxlZGdlcjEMMAoGA1UECxMDRlZUMRIwEAYD
VQQDEwlyc2E1MTJLZXmCCEDzPKW0K7qVMA8GA1UdEwEB/wQFMAMBAf8wCwYDVR0P
BAQDAgEGMBEGA1UdIAQKMAgwBgYEVR0gADAPBgNVHREECDAGhwR/AAABMA0GCSqG
SIb3DQEBCwUAA0EAPH4eknD21Xb2rKJdkI1RfZcveuBHHDZOI19tPEdww4hRMpYp
didQRJ4GY+AdsfY8Bl1VrLORe+QVvLpkKTNfcA==
-----END CERTIFICATE-----
