Certificate:
    Data:
        Version: 3 (0x2)
        Serial Number: 18237722559857237339 (0xfd19680a646b1d5b)
    Signature Algorithm: ecdsa-with-SHA256
        Issuer: C=US, ST=NC, L=RTP, O=IBM, O=Hyperledger, OU=FVT, CN=ec256Key
        Validity
            Not Before: Jan  1 00:00:00 2037 GMT
            Not After : Jan  1 00:00:00 2037 GMT
        Subject: C=US, ST=NC, L=RTP, O=IBM, O=Hyperledger, OU=FVT, CN=intCaEc256
        Subject Public Key Info:
            Public Key Algorithm: id-ecPublicKey
                Public-Key: (256 bit)
                pub: 
                    04:76:47:59:83:35:c2:2d:78:36:72:99:9a:3d:4f:
                    c5:56:3c:a8:d6:cb:b1:77:df:96:24:d9:d7:20:68:
                    96:a8:52:72:ef:74:e3:13:f1:15:7b:87:d0:4c:2d:
                    87:07:ed:69:59:52:43:f1:e8:4a:9b:f4:17:fb:8c:
                    b5:ea:12:52:cd
                ASN1 OID: prime256v1
        X509v3 extensions:
            X509v3 CRL Distribution Points: 

                Full Name:
                  URI:http://localhost:3755/ec256-1/crl/crl.der

            X509v3 Subject Key Identifier: 
                EC:7A:52:F4:3F:55:3A:7B:7C:47:7E:2F:8B:24:8E:22:8F:6E:65:97
            X509v3 Authority Key Identifier: 
                keyid:14:39:40:E4:8C:2C:2C:C7:A4:AB:21:48:45:B5:BA:EB:9D:18:50:26
                DirName:/C=US/ST=NC/L=RTP/O=IBM/O=Hyperledger/OU=FVT/CN=ec256Key
                serial:FD:19:68:0A:64:6B:1D:56

            X509v3 Basic Constraints: critical
                CA:TRUE
            X509v3 Key Usage: 
                Certificate Sign, CRL Sign
            X509v3 Certificate Policies: 
                Policy: X509v3 Any Policy

            X509v3 Subject Alternative Name: 
                IP Address:127.0.0.1
    Signature Algorithm: ecdsa-with-SHA256
         30:44:02:20:16:e1:a1:fb:fe:31:45:6b:59:f7:0f:6e:f7:9b:
         1b:68:a8:94:93:c6:d1:12:dc:51:b2:12:7f:86:b2:3f:0f:98:
         02:20:4c:ae:6a:5d:c4:f4:6f:5c:44:74:6c:33:90:66:41:2e:
         2a:40:d0:c7:d8:8f:4d:e6:65:9b:2d:01:0d:04:f3:f5
-----BEGIN CERTIFICATE-----
MIIDGzCCAsKgAwIBAgIJAP0ZaApkax1bMAoGCCqGSM49BAMCMG0xCzAJBgNVBAYT
AlVTMQswCQYDVQQIEwJOQzEMMAoGA1UEBxMDUlRQMQwwCgYDVQQKEwNJQk0xFDAS
BgNVBAoTC0h5cGVybGVkZ2VyMQwwCgYDVQQLEwNGVlQxETAPBgNVBAMTCGVjMjU2
S2V5MCIYDzIwMzcwMTAxMDAwMDAwWhgPMjAzNzAxMDEwMDAwMDBaMG8xCzAJBgNV
BAYTAlVTMQswCQYDVQQIEwJOQzEMMAoGA1UEBxMDUlRQMQwwCgYDVQQKEwNJQk0x
FDASBgNVBAoTC0h5cGVybGVkZ2VyMQwwCgYDVQQLEwNGVlQxEzARBgNVBAMTCmlu
dENhRWMyNTYwWTATBgcqhkjOPQIBBggqhkjOPQMBBwNCAAR2R1mDNcIteDZymZo9
T8VWPKjWy7F335Yk2dcgaJaoUnLvdOMT8RV7h9BMLYcH7WlZUkPx6Eqb9Bf7jLXq
ElLNo4IBQzCCAT8wOgYDVR0fBDMwMTAvoC2gK4YpaHR0cDovL2xvY2FsaG9zdDoz
NzU1L2VjMjU2LTEvY3JsL2NybC5kZXIwHQYDVR0OBBYEFOx6UvQ/VTp7fEd+L4sk
jiKPbmWXMIGfBgNVHSMEgZcwgZSAFBQ5QOSMLCzHpKshSEW1uuudGFAmoXGkbzBt
MQswCQYDVQQGEwJVUzELMAkGA1UECBMCTkMxDDAKBgNVBAcTA1JUUDEMMAoGA1UE
ChMDSUJNMRQwEgYDVQQKEwtIeXBlcmxlZGdlcjEMMAoGA1UECxMDRlZUMREwDwYD
VQQDEwhlYzI1NktleYIJAP0ZaApkax1WMA8GA1UdEwEB/wQFMAMBAf8wCwYDVR0P
BAQDAgEGMBEGA1UdIAQKMAgwBgYEVR0gADAPBgNVHREECDAGhwR/AAABMAoGCCqG
SM49BAMCA0cAMEQCIBbhofv+MUVrWfcPbvebG2iolJPG0RLcUbISf4ayPw+YAiBM
rmpdxPRvXER0bDOQZkEuKkDQx9iPTeZlmy0BDQTz9Q==
-----END CERTIFICATE-----
